target datalayout = "e-m:e-p270:32:32-p271:32:32-p272:64:64-i64:64-i128:128-f80:128-n8:16:32:64-S128"
target triple = "x86_64-unknown-linux-gnu"

%struct.buf_mem_st = type { i64, ptr, i64 }

@.str.3 = private unnamed_addr constant [7 x i8] c"%s, %s\00", align 1

; Function Attrs: mustprogress uwtable
define internal noundef ptr @_ZL26aes_gcm_get_openssl_errorsv() #0 {
entry:
  %bio = alloca ptr, align 8
  %mem = alloca ptr, align 8
  %error_msg = alloca ptr, align 8
  %call = call ptr @BIO_s_mem()
  %call1 = call ptr @BIO_new(ptr noundef %call)
  store ptr %call1, ptr %bio, align 8
  %0 = load ptr, ptr %bio, align 8
  call void @ERR_print_errors(ptr noundef %0)
  store ptr null, ptr %mem, align 8
  store ptr null, ptr %error_msg, align 8
  %1 = load ptr, ptr %bio, align 8
  %call2 = call i32 @BIO_get_mem_ptr(ptr noundef %1, ptr noundef %mem)
  %2 = load ptr, ptr %mem, align 8
  %cmp = icmp ne ptr %2, null
  br i1 %cmp, label %if.then, label %if.end

if.then:                                          ; preds = %entry
  %3 = load ptr, ptr %mem, align 8
  %length = getelementptr inbounds %struct.buf_mem_st, ptr %3, i32 0, i32 0
  %4 = load i64, ptr %length, align 8
  %add = add i64 %4, 1
  %call3 = call ptr @gpr_malloc(i64 noundef %add)
  store ptr %call3, ptr %error_msg, align 8
  %5 = load ptr, ptr %error_msg, align 8
  %6 = load ptr, ptr %mem, align 8
  %data = getelementptr inbounds %struct.buf_mem_st, ptr %6, i32 0, i32 1
  %7 = load ptr, ptr %data, align 8
  %8 = load ptr, ptr %mem, align 8
  %length4 = getelementptr inbounds %struct.buf_mem_st, ptr %8, i32 0, i32 0
  %9 = load i64, ptr %length4, align 8
  call void @llvm.memcpy.p0.p0.i64(ptr align 1 %5, ptr align 1 %7, i64 %9, i1 false)
  %10 = load ptr, ptr %error_msg, align 8
  %11 = load ptr, ptr %mem, align 8
  %length5 = getelementptr inbounds %struct.buf_mem_st, ptr %11, i32 0, i32 0
  %12 = load i64, ptr %length5, align 8
  %arrayidx = getelementptr inbounds i8, ptr %10, i64 %12
  store i8 0, ptr %arrayidx, align 1
  br label %if.end

if.end:                                           ; preds = %if.then, %entry
  %13 = load ptr, ptr %bio, align 8
  call void @BIO_free_all(ptr noundef %13)
  %14 = load ptr, ptr %error_msg, align 8
  ret ptr %14
}

; Function Attrs: mustprogress uwtable
define internal void @_ZL21aes_gcm_format_errorsPKcPPc(ptr noundef %error_msg, ptr noundef %error_details) #0 {
entry:
  %error_msg.addr = alloca ptr, align 8
  %error_details.addr = alloca ptr, align 8
  %error = alloca i64, align 8
  %openssl_errors = alloca ptr, align 8
  %len = alloca i64, align 8
  store ptr %error_msg, ptr %error_msg.addr, align 8
  store ptr %error_details, ptr %error_details.addr, align 8
  %0 = load ptr, ptr %error_details.addr, align 8
  %cmp = icmp eq ptr %0, null
  br i1 %cmp, label %if.then, label %if.end

if.then:                                          ; preds = %entry
  br label %if.end22

if.end:                                           ; preds = %entry
  %call = call i32 @ERR_get_error()
  %conv = zext i32 %call to i64
  store i64 %conv, ptr %error, align 8
  %1 = load i64, ptr %error, align 8
  %cmp1 = icmp eq i64 %1, 0
  br i1 %cmp1, label %land.lhs.true, label %if.end8

land.lhs.true:                                    ; preds = %if.end
  %2 = load ptr, ptr %error_msg.addr, align 8
  %cmp2 = icmp ne ptr %2, null
  br i1 %cmp2, label %if.then3, label %if.end8

if.then3:                                         ; preds = %land.lhs.true
  %3 = load ptr, ptr %error_msg.addr, align 8
  %call4 = call i64 @strlen(ptr noundef %3) #16
  %add = add i64 %call4, 1
  %call5 = call ptr @gpr_malloc(i64 noundef %add)
  %4 = load ptr, ptr %error_details.addr, align 8
  store ptr %call5, ptr %4, align 8
  %5 = load ptr, ptr %error_details.addr, align 8
  %6 = load ptr, ptr %5, align 8
  %7 = load ptr, ptr %error_msg.addr, align 8
  %8 = load ptr, ptr %error_msg.addr, align 8
  %call6 = call i64 @strlen(ptr noundef %8) #16
  %add7 = add i64 %call6, 1
  call void @llvm.memcpy.p0.p0.i64(ptr align 1 %6, ptr align 1 %7, i64 %add7, i1 false)
  br label %if.end22

if.end8:                                          ; preds = %land.lhs.true, %if.end
  %call9 = call noundef ptr @_ZL26aes_gcm_get_openssl_errorsv()
  store ptr %call9, ptr %openssl_errors, align 8
  %9 = load ptr, ptr %openssl_errors, align 8
  %cmp10 = icmp ne ptr %9, null
  br i1 %cmp10, label %land.lhs.true11, label %if.end22

land.lhs.true11:                                  ; preds = %if.end8
  %10 = load ptr, ptr %error_msg.addr, align 8
  %cmp12 = icmp ne ptr %10, null
  br i1 %cmp12, label %if.then13, label %if.end22

if.then13:                                        ; preds = %land.lhs.true11
  %11 = load ptr, ptr %error_msg.addr, align 8
  %call14 = call i64 @strlen(ptr noundef %11) #16
  %12 = load ptr, ptr %openssl_errors, align 8
  %call15 = call i64 @strlen(ptr noundef %12) #16
  %add16 = add i64 %call14, %call15
  %add17 = add i64 %add16, 2
  store i64 %add17, ptr %len, align 8
  %13 = load i64, ptr %len, align 8
  %add18 = add i64 %13, 1
  %call19 = call ptr @gpr_malloc(i64 noundef %add18)
  %14 = load ptr, ptr %error_details.addr, align 8
  store ptr %call19, ptr %14, align 8
  %15 = load ptr, ptr %error_details.addr, align 8
  %16 = load ptr, ptr %15, align 8
  %17 = load i64, ptr %len, align 8
  %add20 = add i64 %17, 1
  %18 = load ptr, ptr %error_msg.addr, align 8
  %19 = load ptr, ptr %openssl_errors, align 8
  %call21 = call i32 (ptr, i64, ptr, ...) @snprintf(ptr noundef %16, i64 noundef %add20, ptr noundef @.str.3, ptr noundef %18, ptr noundef %19) #12
  %20 = load ptr, ptr %openssl_errors, align 8
  call void @gpr_free(ptr noundef %20)
  br label %if.end22

if.end22:                                         ; preds = %if.then13, %land.lhs.true11, %if.end8, %if.then3, %if.then
  ret void
}