; Function Attrs: mustprogress uwtable
define internal fastcc void @_ZL21aes_gcm_format_errorsPKcPPc(ptr noundef %error_msg, ptr noundef writeonly %error_details) unnamed_addr #0 {
entry:
  %mem.i = alloca ptr, align 8
  %cmp = icmp eq ptr %error_details, null
  br i1 %cmp, label %if.end22, label %if.end

if.end:                                           ; preds = %entry
  %call = tail call i32 @ERR_get_error()
  %cmp1 = icmp eq i32 %call, 0
  %cmp2 = icmp ne ptr %error_msg, null
  %or.cond = and i1 %cmp2, %cmp1
  br i1 %or.cond, label %if.then3, label %if.end8

if.then3:                                         ; preds = %if.end
  %call4 = tail call i64 @strlen(ptr noundef nonnull dereferenceable(1) %error_msg) #19
  %add = add i64 %call4, 1
  %call5 = tail call ptr @gpr_malloc(i64 noundef %add)
  store ptr %call5, ptr %error_details, align 8
  %call6 = tail call i64 @strlen(ptr noundef nonnull dereferenceable(1) %error_msg) #19
  %add7 = add i64 %call6, 1
  tail call void @llvm.memcpy.p0.p0.i64(ptr align 1 %call5, ptr nonnull align 1 %error_msg, i64 %add7, i1 false)
  br label %if.end22

if.end8:                                          ; preds = %if.end
  call void @llvm.lifetime.start.p0(i64 8, ptr nonnull %mem.i)
  %call.i = tail call ptr @BIO_s_mem()
  %call1.i = tail call ptr @BIO_new(ptr noundef %call.i)
  tail call void @ERR_print_errors(ptr noundef %call1.i)
  store ptr null, ptr %mem.i, align 8
  %call2.i = call i32 @BIO_get_mem_ptr(ptr noundef %call1.i, ptr noundef nonnull %mem.i)
  %0 = load ptr, ptr %mem.i, align 8
  %cmp.not.i = icmp eq ptr %0, null
  br i1 %cmp.not.i, label %_ZL26aes_gcm_get_openssl_errorsv.exit.thread, label %_ZL26aes_gcm_get_openssl_errorsv.exit

_ZL26aes_gcm_get_openssl_errorsv.exit.thread:     ; preds = %if.end8
  call void @BIO_free_all(ptr noundef %call1.i)
  call void @llvm.lifetime.end.p0(i64 8, ptr nonnull %mem.i)
  br label %if.end22

_ZL26aes_gcm_get_openssl_errorsv.exit:            ; preds = %if.end8
  %1 = load i64, ptr %0, align 8
  %add.i = add i64 %1, 1
  %call3.i = call ptr @gpr_malloc(i64 noundef %add.i)
  %2 = load ptr, ptr %mem.i, align 8
  %data.i = getelementptr inbounds i8, ptr %2, i64 8
  %3 = load ptr, ptr %data.i, align 8
  %4 = load i64, ptr %2, align 8
  call void @llvm.memcpy.p0.p0.i64(ptr align 1 %call3.i, ptr align 1 %3, i64 %4, i1 false)
  %5 = load ptr, ptr %mem.i, align 8
  %6 = load i64, ptr %5, align 8
  %arrayidx.i = getelementptr inbounds i8, ptr %call3.i, i64 %6
  store i8 0, ptr %arrayidx.i, align 1
  call void @BIO_free_all(ptr noundef %call1.i)
  call void @llvm.lifetime.end.p0(i64 8, ptr nonnull %mem.i)
  %cmp10 = icmp ne ptr %call3.i, null
  %or.cond1 = and i1 %cmp2, %cmp10
  br i1 %or.cond1, label %if.then13, label %if.end22

if.then13:                                        ; preds = %_ZL26aes_gcm_get_openssl_errorsv.exit
  %call14 = call i64 @strlen(ptr noundef nonnull dereferenceable(1) %error_msg) #19
  %call15 = call i64 @strlen(ptr noundef nonnull dereferenceable(1) %call3.i) #19
  %add16 = add i64 %call14, 3
  %add18 = add i64 %add16, %call15
  %call19 = call ptr @gpr_malloc(i64 noundef %add18)
  store ptr %call19, ptr %error_details, align 8
  %call21 = call i32 (ptr, i64, ptr, ...) @snprintf(ptr noundef %call19, i64 noundef %add18, ptr noundef nonnull @.str.3, ptr noundef nonnull %error_msg, ptr noundef nonnull %call3.i) #18
  call void @gpr_free(ptr noundef nonnull %call3.i)
  br label %if.end22

if.end22:                                         ; preds = %_ZL26aes_gcm_get_openssl_errorsv.exit.thread, %entry, %if.then13, %_ZL26aes_gcm_get_openssl_errorsv.exit, %if.then3
  ret void
}